; Function Attrs: nounwind uwtable
define range(i32 -173, 2) i32 @wolfSSL_CertManagerUnloadIntermediateCerts(ptr noundef %0) local_unnamed_addr #0 {
  %.not.i = icmp eq ptr %0, null
  br i1 %.not.i, label %wolfSSL_CertManagerUnloadIntermediateCertsEx.exit, label %2

2:                                                ; preds = %1
  %3 = getelementptr inbounds nuw i8, ptr %0, i64 184
  %4 = tail call i32 @wc_LockMutex(ptr noundef nonnull %3) #22
  %.not8.i = icmp eq i32 %4, 0
  br i1 %.not8.i, label %.thread.i, label %wolfSSL_CertManagerUnloadIntermediateCertsEx.exit

.thread.i:                                        ; preds = %2
  %5 = getelementptr inbounds nuw i8, ptr %0, i64 88
  %6 = load ptr, ptr %5, align 8, !tbaa !16
  tail call void @FreeSignerTableType(ptr noundef nonnull %0, i32 noundef 11, i8 noundef zeroext 2, ptr noundef %6) #22
  %7 = tail call i32 @wc_UnLockMutex(ptr noundef nonnull %3) #22
  br label %wolfSSL_CertManagerUnloadIntermediateCertsEx.exit

wolfSSL_CertManagerUnloadIntermediateCertsEx.exit: ; preds = %1, %2, %.thread.i
  %.010.i = phi i32 [ 1, %.thread.i ], [ -106, %2 ], [ -173, %1 ]
  ret i32 %.010.i
}